target datalayout = "e-m:e-p270:32:32-p271:32:32-p272:64:64-i64:64-i128:128-f80:128-n8:16:32:64-S128"
target triple = "x86_64-pc-linux-gnu"

@cZError = internal global i64 0, align 8
@cStreamEnd = internal global i64 0, align 8
@cNeedDict = internal global i64 0, align 8
@cDataError = internal global i64 0, align 8
@cStreamError = internal global i64 0, align 8
@cMemError = internal global i64 0, align 8
@cBufError = internal global i64 0, align 8
@cVersionError = internal global i64 0, align 8
@.str.153 = private unnamed_addr constant [26 x i8] c"unknown zlib error %d: %s\00", align 1

; Function Attrs: noreturn nounwind sspstrong uwtable
define internal void @raise_zlib_error(i32 noundef %0, ptr noundef %1) #12 {
  %3 = alloca i32, align 4
  %4 = alloca ptr, align 8
  %5 = alloca i64, align 8
  store i32 %0, ptr %3, align 4, !tbaa !10
  store ptr %1, ptr %4, align 8, !tbaa !19
  call void @llvm.lifetime.start.p0(i64 8, ptr %5) #23
  %6 = load ptr, ptr %4, align 8, !tbaa !19
  %7 = icmp ne ptr %6, null
  br i1 %7, label %11, label %8

8:                                                ; preds = %2
  %9 = load i32, ptr %3, align 4, !tbaa !10
  %10 = call ptr @zError(i32 noundef %9)
  store ptr %10, ptr %4, align 8, !tbaa !19
  br label %11

11:                                               ; preds = %8, %2
  %12 = load i32, ptr %3, align 4, !tbaa !10
  switch i32 %12, label %43 [
    i32 1, label %13
    i32 2, label %17
    i32 -2, label %21
    i32 -3, label %25
    i32 -5, label %29
    i32 -6, label %33
    i32 -4, label %37
    i32 -1, label %41
  ]

13:                                               ; preds = %11
  %14 = load i64, ptr @cStreamEnd, align 8, !tbaa !6
  %15 = load ptr, ptr %4, align 8, !tbaa !19
  %16 = call i64 @rb_exc_new_cstr(i64 noundef %14, ptr noundef %15)
  store i64 %16, ptr %5, align 8, !tbaa !6
  br label %49

17:                                               ; preds = %11
  %18 = load i64, ptr @cNeedDict, align 8, !tbaa !6
  %19 = load ptr, ptr %4, align 8, !tbaa !19
  %20 = call i64 @rb_exc_new_cstr(i64 noundef %18, ptr noundef %19)
  store i64 %20, ptr %5, align 8, !tbaa !6
  br label %49

21:                                               ; preds = %11
  %22 = load i64, ptr @cStreamError, align 8, !tbaa !6
  %23 = load ptr, ptr %4, align 8, !tbaa !19
  %24 = call i64 @rb_exc_new_cstr(i64 noundef %22, ptr noundef %23)
  store i64 %24, ptr %5, align 8, !tbaa !6
  br label %49

25:                                               ; preds = %11
  %26 = load i64, ptr @cDataError, align 8, !tbaa !6
  %27 = load ptr, ptr %4, align 8, !tbaa !19
  %28 = call i64 @rb_exc_new_cstr(i64 noundef %26, ptr noundef %27)
  store i64 %28, ptr %5, align 8, !tbaa !6
  br label %49

29:                                               ; preds = %11
  %30 = load i64, ptr @cBufError, align 8, !tbaa !6
  %31 = load ptr, ptr %4, align 8, !tbaa !19
  %32 = call i64 @rb_exc_new_cstr(i64 noundef %30, ptr noundef %31)
  store i64 %32, ptr %5, align 8, !tbaa !6
  br label %49

33:                                               ; preds = %11
  %34 = load i64, ptr @cVersionError, align 8, !tbaa !6
  %35 = load ptr, ptr %4, align 8, !tbaa !19
  %36 = call i64 @rb_exc_new_cstr(i64 noundef %34, ptr noundef %35)
  store i64 %36, ptr %5, align 8, !tbaa !6
  br label %49

37:                                               ; preds = %11
  %38 = load i64, ptr @cMemError, align 8, !tbaa !6
  %39 = load ptr, ptr %4, align 8, !tbaa !19
  %40 = call i64 @rb_exc_new_cstr(i64 noundef %38, ptr noundef %39)
  store i64 %40, ptr %5, align 8, !tbaa !6
  br label %49

41:                                               ; preds = %11
  %42 = load ptr, ptr %4, align 8, !tbaa !19
  call void @rb_sys_fail(ptr noundef %42) #26
  unreachable

43:                                               ; preds = %11
  %44 = load i64, ptr @cZError, align 8, !tbaa !6
  %45 = load i32, ptr %3, align 4, !tbaa !10
  %46 = load ptr, ptr %4, align 8, !tbaa !19
  %47 = call i64 (ptr, ...) @rb_sprintf(ptr noundef @.str.153, i32 noundef %45, ptr noundef %46)
  %48 = call i64 @rb_exc_new_str(i64 noundef %44, i64 noundef %47)
  store i64 %48, ptr %5, align 8, !tbaa !6
  br label %49

49:                                               ; preds = %43, %37, %33, %29, %25, %21, %17, %13
  %50 = load i64, ptr %5, align 8, !tbaa !6
  call void @rb_exc_raise(i64 noundef %50) #26
  unreachable
}