; Function Attrs: noreturn nounwind sspstrong uwtable
define internal fastcc void @raise_zlib_error(i32 noundef %0, ptr noundef %1) unnamed_addr #5 {
  %.not = icmp eq ptr %1, null
  br i1 %.not, label %3, label %5

3:                                                ; preds = %2
  %4 = tail call ptr @zError(i32 noundef %0) #18
  br label %5

5:                                                ; preds = %3, %2
  %.013 = phi ptr [ %1, %2 ], [ %4, %3 ]
  switch i32 %0, label %28 [
    i32 1, label %6
    i32 2, label %9
    i32 -2, label %12
    i32 -3, label %15
    i32 -5, label %18
    i32 -6, label %21
    i32 -4, label %24
    i32 -1, label %27
  ]

6:                                                ; preds = %5
  %7 = load i64, ptr @cStreamEnd, align 8, !tbaa !6
  %8 = tail call i64 @rb_exc_new_cstr(i64 noundef %7, ptr noundef %.013) #18
  br label %32

9:                                                ; preds = %5
  %10 = load i64, ptr @cNeedDict, align 8, !tbaa !6
  %11 = tail call i64 @rb_exc_new_cstr(i64 noundef %10, ptr noundef %.013) #18
  br label %32

12:                                               ; preds = %5
  %13 = load i64, ptr @cStreamError, align 8, !tbaa !6
  %14 = tail call i64 @rb_exc_new_cstr(i64 noundef %13, ptr noundef %.013) #18
  br label %32

15:                                               ; preds = %5
  %16 = load i64, ptr @cDataError, align 8, !tbaa !6
  %17 = tail call i64 @rb_exc_new_cstr(i64 noundef %16, ptr noundef %.013) #18
  br label %32

18:                                               ; preds = %5
  %19 = load i64, ptr @cBufError, align 8, !tbaa !6
  %20 = tail call i64 @rb_exc_new_cstr(i64 noundef %19, ptr noundef %.013) #18
  br label %32

21:                                               ; preds = %5
  %22 = load i64, ptr @cVersionError, align 8, !tbaa !6
  %23 = tail call i64 @rb_exc_new_cstr(i64 noundef %22, ptr noundef %.013) #18
  br label %32

24:                                               ; preds = %5
  %25 = load i64, ptr @cMemError, align 8, !tbaa !6
  %26 = tail call i64 @rb_exc_new_cstr(i64 noundef %25, ptr noundef %.013) #18
  br label %32

27:                                               ; preds = %5
  tail call void @rb_sys_fail(ptr noundef %.013) #19
  unreachable

28:                                               ; preds = %5
  %29 = load i64, ptr @cZError, align 8, !tbaa !6
  %30 = tail call i64 (ptr, ...) @rb_sprintf(ptr noundef nonnull @.str.153, i32 noundef %0, ptr noundef %.013) #18
  %31 = tail call i64 @rb_exc_new_str(i64 noundef %29, i64 noundef %30) #18
  br label %32

32:                                               ; preds = %28, %24, %21, %18, %15, %12, %9, %6
  %.0 = phi i64 [ %31, %28 ], [ %26, %24 ], [ %23, %21 ], [ %20, %18 ], [ %17, %15 ], [ %14, %12 ], [ %11, %9 ], [ %8, %6 ]
  tail call void @rb_exc_raise(i64 noundef %.0) #19
  unreachable
}